target datalayout = "e-m:e-p270:32:32-p271:32:32-p272:64:64-i64:64-i128:128-f80:128-n8:16:32:64-S128"
target triple = "x86_64-pc-linux-gnu"

%"class.llvm::StringRef" = type { ptr, i64 }
%"class.llvm::MemoryBufferRef" = type { %"class.llvm::StringRef", %"class.llvm::StringRef" }
%"struct.clang::PrecompiledPreamble::PreambleFileHash" = type { i64, i64, %"struct.llvm::MD5::MD5Result" }
%"struct.llvm::MD5::MD5Result" = type { %"struct.std::array" }
%"struct.std::array" = type { [16 x i8] }
%"class.llvm::MD5" = type { %struct.anon.723 }
%struct.anon.723 = type { i32, i32, i32, i32, i32, i32, [64 x i8], [16 x i32] }

; Function Attrs: mustprogress nounwind uwtable
define linkonce_odr hidden noundef i64 @_ZNSt11char_traitsIcE6lengthEPKc(ptr noundef %0) #0 comdat align 2 {
  %2 = alloca ptr, align 8
  store ptr %0, ptr %2, align 8
  %3 = load ptr, ptr %2, align 8
  %4 = call i64 @strlen(ptr noundef %3) #7
  ret i64 %4
}

; Function Attrs: mustprogress nounwind uwtable
define linkonce_odr hidden noundef i64 @_ZNK4llvm9StringRef4sizeEv(ptr noundef nonnull align 8 dereferenceable(16) %0) #0 comdat align 2 {
  %2 = alloca ptr, align 8
  store ptr %0, ptr %2, align 8
  %3 = load ptr, ptr %2, align 8
  %4 = getelementptr inbounds nuw %"class.llvm::StringRef", ptr %3, i32 0, i32 1
  %5 = load i64, ptr %4, align 8
  ret i64 %5
}

; Function Attrs: mustprogress nounwind uwtable
define linkonce_odr hidden void @_ZN4llvm9StringRefC2EPKc(ptr noundef nonnull align 8 dereferenceable(16) %0, ptr noundef %1) unnamed_addr #0 comdat align 2 {
  %3 = alloca ptr, align 8
  %4 = alloca ptr, align 8
  store ptr %0, ptr %3, align 8
  store ptr %1, ptr %4, align 8
  %5 = load ptr, ptr %3, align 8
  %6 = getelementptr inbounds nuw %"class.llvm::StringRef", ptr %5, i32 0, i32 0
  %7 = load ptr, ptr %4, align 8
  store ptr %7, ptr %6, align 8
  %8 = getelementptr inbounds nuw %"class.llvm::StringRef", ptr %5, i32 0, i32 1
  %9 = load ptr, ptr %4, align 8
  %10 = icmp ne ptr %9, null
  br i1 %10, label %11, label %14

11:                                               ; preds = %2
  %12 = load ptr, ptr %4, align 8
  %13 = call noundef i64 @_ZNSt11char_traitsIcE6lengthEPKc(ptr noundef %12)
  br label %15

14:                                               ; preds = %2
  br label %15

15:                                               ; preds = %14, %11
  %16 = phi i64 [ %13, %11 ], [ 0, %14 ]
  store i64 %16, ptr %8, align 8
  ret void
}

; Function Attrs: mustprogress nounwind uwtable
define linkonce_odr hidden noundef ptr @_ZNK4llvm9StringRef4dataEv(ptr noundef nonnull align 8 dereferenceable(16) %0) #0 comdat align 2 {
  %2 = alloca ptr, align 8
  store ptr %0, ptr %2, align 8
  %3 = load ptr, ptr %2, align 8
  %4 = getelementptr inbounds nuw %"class.llvm::StringRef", ptr %3, i32 0, i32 0
  %5 = load ptr, ptr %4, align 8
  ret ptr %5
}

; Function Attrs: mustprogress nounwind uwtable
define linkonce_odr hidden { ptr, i64 } @_ZNK4llvm15MemoryBufferRef9getBufferEv(ptr noundef nonnull align 8 dereferenceable(32) %0) #0 comdat align 2 {
  %2 = alloca %"class.llvm::StringRef", align 8
  %3 = alloca ptr, align 8
  store ptr %0, ptr %3, align 8
  %4 = load ptr, ptr %3, align 8
  %5 = getelementptr inbounds nuw %"class.llvm::MemoryBufferRef", ptr %4, i32 0, i32 0
  call void @llvm.memcpy.p0.p0.i64(ptr align 8 %2, ptr align 8 %5, i64 16, i1 false)
  %6 = load { ptr, i64 }, ptr %2, align 8
  ret { ptr, i64 } %6
}

; Function Attrs: mustprogress nounwind uwtable
define linkonce_odr hidden noundef i64 @_ZNK4llvm15MemoryBufferRef13getBufferSizeEv(ptr noundef nonnull align 8 dereferenceable(32) %0) #0 comdat align 2 {
  %2 = alloca ptr, align 8
  store ptr %0, ptr %2, align 8
  %3 = load ptr, ptr %2, align 8
  %4 = getelementptr inbounds nuw %"class.llvm::MemoryBufferRef", ptr %3, i32 0, i32 0
  %5 = call noundef i64 @_ZNK4llvm9StringRef4sizeEv(ptr noundef nonnull align 8 dereferenceable(16) %4)
  ret i64 %5
}

; Function Attrs: mustprogress nounwind uwtable
define linkonce_odr hidden void @_ZN5clang19PrecompiledPreamble16PreambleFileHashC2Ev(ptr noundef nonnull align 8 dereferenceable(32) %0) unnamed_addr #0 comdat align 2 {
  %2 = alloca ptr, align 8
  store ptr %0, ptr %2, align 8
  %3 = load ptr, ptr %2, align 8
  %4 = getelementptr inbounds nuw %"struct.clang::PrecompiledPreamble::PreambleFileHash", ptr %3, i32 0, i32 0
  store i64 0, ptr %4, align 8
  %5 = getelementptr inbounds nuw %"struct.clang::PrecompiledPreamble::PreambleFileHash", ptr %3, i32 0, i32 1
  store i64 0, ptr %5, align 8
  %6 = getelementptr inbounds nuw %"struct.clang::PrecompiledPreamble::PreambleFileHash", ptr %3, i32 0, i32 2
  %7 = getelementptr inbounds nuw %"struct.std::array", ptr %6, i32 0, i32 0
  call void @llvm.memset.p0.i64(ptr align 8 %7, i8 0, i64 16, i1 false)
  ret void
}

; Function Attrs: mustprogress nounwind uwtable
define dso_local void @_ZN5clang19PrecompiledPreamble16PreambleFileHash21createForMemoryBufferERKN4llvm15MemoryBufferRefE(ptr dead_on_unwind noalias writable sret(%"struct.clang::PrecompiledPreamble::PreambleFileHash") align 8 %0, ptr noundef nonnull align 8 dereferenceable(32) %1) #0 align 2 {
  %3 = alloca ptr, align 8
  %4 = alloca %"class.llvm::MD5", align 4
  %5 = alloca %"class.llvm::StringRef", align 8
  %6 = alloca %"class.llvm::StringRef", align 8
  store ptr %1, ptr %3, align 8
  call void @_ZN5clang19PrecompiledPreamble16PreambleFileHashC2Ev(ptr noundef nonnull align 8 dereferenceable(32) %0) #7
  %7 = load ptr, ptr %3, align 8
  %8 = call noundef i64 @_ZNK4llvm15MemoryBufferRef13getBufferSizeEv(ptr noundef nonnull align 8 dereferenceable(32) %7)
  %9 = getelementptr inbounds nuw %"struct.clang::PrecompiledPreamble::PreambleFileHash", ptr %0, i32 0, i32 0
  store i64 %8, ptr %9, align 8
  %10 = getelementptr inbounds nuw %"struct.clang::PrecompiledPreamble::PreambleFileHash", ptr %0, i32 0, i32 1
  store i64 0, ptr %10, align 8
  call void @_ZN4llvm3MD5C1Ev(ptr noundef nonnull align 4 dereferenceable(152) %4)
  %11 = load ptr, ptr %3, align 8
  %12 = call { ptr, i64 } @_ZNK4llvm15MemoryBufferRef9getBufferEv(ptr noundef nonnull align 8 dereferenceable(32) %11)
  %13 = getelementptr inbounds nuw { ptr, i64 }, ptr %6, i32 0, i32 0
  %14 = extractvalue { ptr, i64 } %12, 0
  store ptr %14, ptr %13, align 8
  %15 = getelementptr inbounds nuw { ptr, i64 }, ptr %6, i32 0, i32 1
  %16 = extractvalue { ptr, i64 } %12, 1
  store i64 %16, ptr %15, align 8
  %17 = call noundef ptr @_ZNK4llvm9StringRef4dataEv(ptr noundef nonnull align 8 dereferenceable(16) %6)
  call void @_ZN4llvm9StringRefC2EPKc(ptr noundef nonnull align 8 dereferenceable(16) %5, ptr noundef %17)
  %18 = getelementptr inbounds nuw { ptr, i64 }, ptr %5, i32 0, i32 0
  %19 = load ptr, ptr %18, align 8
  %20 = getelementptr inbounds nuw { ptr, i64 }, ptr %5, i32 0, i32 1
  %21 = load i64, ptr %20, align 8
  call void @_ZN4llvm3MD56updateENS_9StringRefE(ptr noundef nonnull align 4 dereferenceable(152) %4, ptr %19, i64 %21)
  %22 = getelementptr inbounds nuw %"struct.clang::PrecompiledPreamble::PreambleFileHash", ptr %0, i32 0, i32 2
  call void @_ZN4llvm3MD55finalERNS0_9MD5ResultE(ptr noundef nonnull align 4 dereferenceable(152) %4, ptr noundef nonnull align 1 dereferenceable(16) %22)
  ret void
}