; Function Attrs: mustprogress nounwind uwtable
define dso_local void @_ZN5clang19PrecompiledPreamble16PreambleFileHash21createForMemoryBufferERKN4llvm15MemoryBufferRefE(ptr dead_on_unwind noalias writable sret(%"struct.clang::PrecompiledPreamble::PreambleFileHash") align 8 %0, ptr nocapture noundef nonnull readonly align 8 dereferenceable(32) %1) local_unnamed_addr #0 align 2 {
  %3 = alloca %"class.llvm::MD5", align 4
  %4 = getelementptr inbounds i8, ptr %0, i64 16
  tail call void @llvm.memset.p0.i64(ptr noundef nonnull align 8 dereferenceable(32) %4, i8 0, i64 16, i1 false)
  %5 = getelementptr inbounds nuw i8, ptr %1, i64 8
  %6 = load i64, ptr %5, align 8
  store i64 %6, ptr %0, align 8
  %7 = getelementptr inbounds nuw i8, ptr %0, i64 8
  store i64 0, ptr %7, align 8
  call void @_ZN4llvm3MD5C1Ev(ptr noundef nonnull align 4 dereferenceable(152) %3) #21
  %.sroa.0.0.copyload.i = load ptr, ptr %1, align 8
  %.not.i = icmp eq ptr %.sroa.0.0.copyload.i, null
  br i1 %.not.i, label %_ZN4llvm9StringRefC2EPKc.exit, label %8

8:                                                ; preds = %2
  %9 = call noundef i64 @strlen(ptr noundef nonnull dereferenceable(1) %.sroa.0.0.copyload.i) #21
  br label %_ZN4llvm9StringRefC2EPKc.exit

_ZN4llvm9StringRefC2EPKc.exit:                    ; preds = %2, %8
  %10 = phi i64 [ %9, %8 ], [ 0, %2 ]
  call void @_ZN4llvm3MD56updateENS_9StringRefE(ptr noundef nonnull align 4 dereferenceable(152) %3, ptr %.sroa.0.0.copyload.i, i64 %10) #21
  %11 = getelementptr inbounds nuw i8, ptr %0, i64 16
  call void @_ZN4llvm3MD55finalERNS0_9MD5ResultE(ptr noundef nonnull align 4 dereferenceable(152) %3, ptr noundef nonnull align 1 dereferenceable(16) %11) #21
  ret void
}